(lp0
V\u041a\u043e\u0440\u0438\u0441\u0442\u0443\u0432\u0430\u0447:JackBot
p1
aV\u041e\u0431\u0433\u043e\u0432\u043e\u0440\u0435\u043d\u043d\u044f \u043a\u043e\u0440\u0438\u0441\u0442\u0443\u0432\u0430\u0447\u0430:JackBot
p2
a.