(lp0
V\u041a\u043e\u043b\u0434\u043e\u043d\u0443\u0443\u0447\u0443:JackBot
p1
aV\u041a\u043e\u043b\u0434\u043e\u043d\u0443\u0443\u0447\u0443\u043d\u0443\u043d \u0431\u0430\u0430\u0440\u043b\u0430\u0448\u0443\u0443\u043b\u0430\u0440\u044b:JackBot
p2
a.