(lp0
VUtilisateur:JackBot
p1
aVUtilisateur:JackPotte/2009
p2
aVUtilisateur:JackPotte/2011
p3
aVUtilisateur:JackPotte/2012
p4
aVUtilisateur:JackPotte/2013
p5
aVUtilisateur:JackPotte/2014
p6
aVUtilisateur:JackPotte/2015
p7
aVUtilisateur:JackPotte/2016
p8
aVDiscussion utilisateur:JackBot
p9
aVDiscussion utilisateur:JackPotte/2009
p10
aVDiscussion utilisateur:JackPotte/2011
p11
aVDiscussion utilisateur:JackPotte/2012
p12
aVDiscussion utilisateur:JackPotte/2013
p13
aVDiscussion utilisateur:JackPotte/2014
p14
aVDiscussion utilisateur:JackPotte/2015
p15
aVDiscussion utilisateur:JackPotte/2016
p16
a.