(lp0
VAeronian
p1
aVAptian
p2
aVArtinskian
p3
aVAsselian
p4
aVBajocian
p5
aVBartonian
p6
aVBathonian
p7
aVBoreal
p8
aVBurdigalian
p9
aVCallovian
p10
aVCapitanian
p11
aVCenomanian
p12
aVChanghsingian
p13
aVChattian
p14
aVConiacian
p15
aVDanian
p16
aVDapingian
p17
aVDarriwilian
p18
aVDrumian
p19
aVEifelian
p20
aVEmsian
p21
aVFamennian
p22
aVFloian
p23
aVFortunian
p24
aVFrasnian
p25
aVGelasian
p26
aVGorstian
p27
aVGuzhangian
p28
aVGzhelian
p29
aVHettangian
p30
aVHirnantian
p31
aVInduan
p32
aVJiangshanian
p33
aVKasimovian
p34
aVKatian
p35
aVKimmeridgian
p36
aVKungurian
p37
aVLadinian
p38
aVLanghian
p39
aVLochkovian
p40
aVLudfordian
p41
aVLutetian
p42
aVMessinian
p43
aVOlenekian
p44
aVPaibian
p45
aVPiacenzian
p46
aVPliensbachian
p47
aVPragian
p48
aVPriabonian
p49
aVRhuddanian
p50
aVRoadian
p51
aVRupelian
p52
aVSakmarian
p53
aVSandbian
p54
aVSantonian
p55
aVSelandian
p56
aVSerpukhovian
p57
aVSerravallian
p58
aVSheinwoodian
p59
aVSinemurian
p60
aVTarantian
p61
aVTelychian
p62
aVThanetian
p63
aVTithonian
p64
aVTitonian
p65
aVToarcian
p66
aVTortonian
p67
aVTremadocian
p68
aVVisean
p69
aVWordian
p70
aVWuchiapingian
p71
aVZanclean
p72
aVaeronian
p73
aVaptian
p74
aVartinskian
p75
aVasselian
p76
aVbajocian
p77
aVbartonian
p78
aVbashkirian
p79
aVbathonian
p80
aVburdigalian
p81
aVcallovian
p82
aVcapitanian
p83
aVcenomanian
p84
aVchanghsingian
p85
aVchattian
p86
aVconiacian
p87
aVdanian
p88
aVdapingian
p89
aVdarriwilian
p90
aVdrumian
p91
aVeifelian
p92
aVemsian
p93
aVfamennian
p94
aVfloian
p95
aVfortunian
p96
aVfrasnian
p97
aVgelasian
p98
aVgorstian
p99
aVguzhangian
p100
aVgzhelian
p101
aVhettangian
p102
aVhirnantian
p103
aVhomerian
p104
aVinduan
p105
aVionian
p106
aVjiangshanian
p107
aVkasimovian
p108
aVkatian
p109
aVkimmeridgian
p110
aVkungurian
p111
aVladinian
p112
aVlanghian
p113
aVlochkovian
p114
aVludfordian
p115
aVlutetian
p116
aVmaastrichtian
p117
aVmessinian
p118
aVmoscovian
p119
aVolenekian
p120
aVoxfordian
p121
aVpaibian
p122
aVpiacenzian
p123
aVpliensbachian
p124
aVpragian
p125
aVpriabonian
p126
aVpridoli
p127
aVrhuddanian
p128
aVroadian
p129
aVrupelian
p130
aVsakmarian
p131
aVsandbian
p132
aVsantonian
p133
aVselandian
p134
aVserpukhovian
p135
aVserravallian
p136
aVsheinwoodian
p137
aVsinemurian
p138
aVtarantian
p139
aVtelychian
p140
aVthanetian
p141
aVtitonian
p142
aVtoarcian
p143
aVtortonian
p144
aVtremadocian
p145
aVturonian
p146
aVvisean
p147
aVwordian
p148
aVwuchiapingian
p149
aVypresian
p150
aVzanclean
p151
aVTalk:Aeronian
p152
aVTalk:Aptian
p153
aVTalk:Artinskian
p154
aVTalk:Asselian
p155
aVTalk:Bajocian
p156
aVTalk:Bartonian
p157
aVTalk:Bathonian
p158
aVTalk:Boreal
p159
aVTalk:Burdigalian
p160
aVTalk:Callovian
p161
aVTalk:Capitanian
p162
aVTalk:Cenomanian
p163
aVTalk:Changhsingian
p164
aVTalk:Chattian
p165
aVTalk:Coniacian
p166
aVTalk:Danian
p167
aVTalk:Dapingian
p168
aVTalk:Darriwilian
p169
aVTalk:Drumian
p170
aVTalk:Eifelian
p171
aVTalk:Emsian
p172
aVTalk:Famennian
p173
aVTalk:Floian
p174
aVTalk:Fortunian
p175
aVTalk:Frasnian
p176
aVTalk:Gelasian
p177
aVTalk:Gorstian
p178
aVTalk:Guzhangian
p179
aVTalk:Gzhelian
p180
aVTalk:Hettangian
p181
aVTalk:Hirnantian
p182
aVTalk:Induan
p183
aVTalk:Jiangshanian
p184
aVTalk:Kasimovian
p185
aVTalk:Katian
p186
aVTalk:Kimmeridgian
p187
aVTalk:Kungurian
p188
aVTalk:Ladinian
p189
aVTalk:Langhian
p190
aVTalk:Lochkovian
p191
aVTalk:Ludfordian
p192
aVTalk:Lutetian
p193
aVTalk:Messinian
p194
aVTalk:Olenekian
p195
aVTalk:Paibian
p196
aVTalk:Piacenzian
p197
aVTalk:Pliensbachian
p198
aVTalk:Pragian
p199
aVTalk:Priabonian
p200
aVTalk:Rhuddanian
p201
aVTalk:Roadian
p202
aVTalk:Rupelian
p203
aVTalk:Sakmarian
p204
aVTalk:Sandbian
p205
aVTalk:Santonian
p206
aVTalk:Selandian
p207
aVTalk:Serpukhovian
p208
aVTalk:Serravallian
p209
aVTalk:Sheinwoodian
p210
aVTalk:Sinemurian
p211
aVTalk:Tarantian
p212
aVTalk:Telychian
p213
aVTalk:Thanetian
p214
aVTalk:Tithonian
p215
aVTalk:Titonian
p216
aVTalk:Toarcian
p217
aVTalk:Tortonian
p218
aVTalk:Tremadocian
p219
aVTalk:Visean
p220
aVTalk:Wordian
p221
aVTalk:Wuchiapingian
p222
aVTalk:Zanclean
p223
aVTalk:aeronian
p224
aVTalk:aptian
p225
aVTalk:artinskian
p226
aVTalk:asselian
p227
aVTalk:bajocian
p228
aVTalk:bartonian
p229
aVTalk:bashkirian
p230
aVTalk:bathonian
p231
aVTalk:burdigalian
p232
aVTalk:callovian
p233
aVTalk:capitanian
p234
aVTalk:cenomanian
p235
aVTalk:changhsingian
p236
aVTalk:chattian
p237
aVTalk:coniacian
p238
aVTalk:danian
p239
aVTalk:dapingian
p240
aVTalk:darriwilian
p241
aVTalk:drumian
p242
aVTalk:eifelian
p243
aVTalk:emsian
p244
aVTalk:famennian
p245
aVTalk:floian
p246
aVTalk:fortunian
p247
aVTalk:frasnian
p248
aVTalk:gelasian
p249
aVTalk:gorstian
p250
aVTalk:guzhangian
p251
aVTalk:gzhelian
p252
aVTalk:hettangian
p253
aVTalk:hirnantian
p254
aVTalk:homerian
p255
aVTalk:induan
p256
aVTalk:ionian
p257
aVTalk:jiangshanian
p258
aVTalk:kasimovian
p259
aVTalk:katian
p260
aVTalk:kimmeridgian
p261
aVTalk:kungurian
p262
aVTalk:ladinian
p263
aVTalk:langhian
p264
aVTalk:lochkovian
p265
aVTalk:ludfordian
p266
aVTalk:lutetian
p267
aVTalk:maastrichtian
p268
aVTalk:messinian
p269
aVTalk:moscovian
p270
aVTalk:olenekian
p271
aVTalk:oxfordian
p272
aVTalk:paibian
p273
aVTalk:piacenzian
p274
aVTalk:pliensbachian
p275
aVTalk:pragian
p276
aVTalk:priabonian
p277
aVTalk:pridoli
p278
aVTalk:rhuddanian
p279
aVTalk:roadian
p280
aVTalk:rupelian
p281
aVTalk:sakmarian
p282
aVTalk:sandbian
p283
aVTalk:santonian
p284
aVTalk:selandian
p285
aVTalk:serpukhovian
p286
aVTalk:serravallian
p287
aVTalk:sheinwoodian
p288
aVTalk:sinemurian
p289
aVTalk:tarantian
p290
aVTalk:telychian
p291
aVTalk:thanetian
p292
aVTalk:titonian
p293
aVTalk:toarcian
p294
aVTalk:tortonian
p295
aVTalk:tremadocian
p296
aVTalk:turonian
p297
aVTalk:visean
p298
aVTalk:wordian
p299
aVTalk:wuchiapingian
p300
aVTalk:ypresian
p301
aVTalk:zanclean
p302
a.